; Function Attrs: mustprogress nofree norecurse nosync nounwind willreturn memory(read, argmem: readwrite, inaccessiblemem: none) uwtable
define internal ptr @list_next_fn(ptr noundef captures(none) %0) #4 {
  %2 = load ptr, ptr %0, align 8
  %3 = icmp eq ptr %2, null
  br i1 %3, label %14, label %4

4:                                                ; preds = %1
  %5 = load ptr, ptr %2, align 8
  %6 = getelementptr inbounds nuw i8, ptr %0, i64 8
  %7 = load ptr, ptr %6, align 8
  %8 = getelementptr i8, ptr %7, i64 4
  %.val = load i32, ptr %8, align 4
  %9 = getelementptr i8, ptr %7, i64 16
  %.val9 = load ptr, ptr %9, align 8
  %10 = getelementptr inbounds nuw i8, ptr %2, i64 8
  %11 = sext i32 %.val to i64
  %12 = getelementptr inbounds %union.ListCell, ptr %.val9, i64 %11
  %13 = icmp ult ptr %10, %12
  %..i = select i1 %13, ptr %10, ptr null
  store ptr %..i, ptr %0, align 8
  br label %14

14:                                               ; preds = %1, %4
  %.0 = phi ptr [ %5, %4 ], [ null, %1 ]
  ret ptr %.0
}